target datalayout = "e-m:e-p270:32:32-p271:32:32-p272:64:64-i64:64-i128:128-f80:128-n8:16:32:64-S128"
target triple = "x86_64-pc-linux-gnu"

%"class.gmx::AnalysisDataDisplacementModule::Impl" = type { i32, float, i32, i8, float, float, float, i32, i32, i32, ptr, %"class.std::vector", ptr }
%"class.std::vector" = type { %"struct.std::_Vector_base" }
%"struct.std::_Vector_base" = type { %"struct.std::_Vector_base<gmx::AnalysisDataValue, std::allocator<gmx::AnalysisDataValue>>::_Vector_impl" }
%"struct.std::_Vector_base<gmx::AnalysisDataValue, std::allocator<gmx::AnalysisDataValue>>::_Vector_impl" = type { %"struct.std::_Vector_base<gmx::AnalysisDataValue, std::allocator<gmx::AnalysisDataValue>>::_Vector_impl_data" }
%"struct.std::_Vector_base<gmx::AnalysisDataValue, std::allocator<gmx::AnalysisDataValue>>::_Vector_impl_data" = type { ptr, ptr, ptr }

; Function Attrs: mustprogress nounwind uwtable
define linkonce_odr void @_ZNSt15__new_allocatorIN3gmx17AnalysisDataValueEEC2Ev(ptr noundef nonnull align 1 dereferenceable(1) %0) unnamed_addr #0 comdat align 2 {
  %2 = alloca ptr, align 8
  store ptr %0, ptr %2, align 8
  ret void
}

; Function Attrs: mustprogress nounwind uwtable
define linkonce_odr void @_ZNSt12_Vector_baseIN3gmx17AnalysisDataValueESaIS1_EE17_Vector_impl_dataC2Ev(ptr noundef nonnull align 8 dereferenceable(24) %0) unnamed_addr #0 comdat align 2 {
  %2 = alloca ptr, align 8
  store ptr %0, ptr %2, align 8
  %3 = load ptr, ptr %2, align 8
  %4 = getelementptr inbounds %"struct.std::_Vector_base<gmx::AnalysisDataValue, std::allocator<gmx::AnalysisDataValue>>::_Vector_impl_data", ptr %3, i32 0, i32 0
  store ptr null, ptr %4, align 8
  %5 = getelementptr inbounds %"struct.std::_Vector_base<gmx::AnalysisDataValue, std::allocator<gmx::AnalysisDataValue>>::_Vector_impl_data", ptr %3, i32 0, i32 1
  store ptr null, ptr %5, align 8
  %6 = getelementptr inbounds %"struct.std::_Vector_base<gmx::AnalysisDataValue, std::allocator<gmx::AnalysisDataValue>>::_Vector_impl_data", ptr %3, i32 0, i32 2
  store ptr null, ptr %6, align 8
  ret void
}

; Function Attrs: mustprogress nounwind uwtable
define linkonce_odr void @_ZNSaIN3gmx17AnalysisDataValueEEC2Ev(ptr noundef nonnull align 1 dereferenceable(1) %0) unnamed_addr #0 comdat align 2 {
  %2 = alloca ptr, align 8
  store ptr %0, ptr %2, align 8
  %3 = load ptr, ptr %2, align 8
  call void @_ZNSt15__new_allocatorIN3gmx17AnalysisDataValueEEC2Ev(ptr noundef nonnull align 1 dereferenceable(1) %3) #14
  ret void
}

; Function Attrs: mustprogress nounwind uwtable
define linkonce_odr void @_ZNSt12_Vector_baseIN3gmx17AnalysisDataValueESaIS1_EE12_Vector_implC2Ev(ptr noundef nonnull align 8 dereferenceable(24) %0) unnamed_addr #0 comdat align 2 {
  %2 = alloca ptr, align 8
  store ptr %0, ptr %2, align 8
  %3 = load ptr, ptr %2, align 8
  call void @_ZNSaIN3gmx17AnalysisDataValueEEC2Ev(ptr noundef nonnull align 1 dereferenceable(1) %3) #14
  call void @_ZNSt12_Vector_baseIN3gmx17AnalysisDataValueESaIS1_EE17_Vector_impl_dataC2Ev(ptr noundef nonnull align 8 dereferenceable(24) %3) #14
  ret void
}

; Function Attrs: mustprogress nounwind uwtable
define linkonce_odr void @_ZNSt12_Vector_baseIN3gmx17AnalysisDataValueESaIS1_EEC2Ev(ptr noundef nonnull align 8 dereferenceable(24) %0) unnamed_addr #0 comdat align 2 {
  %2 = alloca ptr, align 8
  store ptr %0, ptr %2, align 8
  %3 = load ptr, ptr %2, align 8
  %4 = getelementptr inbounds %"struct.std::_Vector_base", ptr %3, i32 0, i32 0
  call void @_ZNSt12_Vector_baseIN3gmx17AnalysisDataValueESaIS1_EE12_Vector_implC2Ev(ptr noundef nonnull align 8 dereferenceable(24) %4) #14
  ret void
}

; Function Attrs: mustprogress nounwind uwtable
define linkonce_odr void @_ZNSt6vectorIN3gmx17AnalysisDataValueESaIS1_EEC2Ev(ptr noundef nonnull align 8 dereferenceable(24) %0) unnamed_addr #0 comdat align 2 {
  %2 = alloca ptr, align 8
  store ptr %0, ptr %2, align 8
  %3 = load ptr, ptr %2, align 8
  call void @_ZNSt12_Vector_baseIN3gmx17AnalysisDataValueESaIS1_EEC2Ev(ptr noundef nonnull align 8 dereferenceable(24) %3) #14
  ret void
}

; Function Attrs: mustprogress nounwind uwtable
define void @_ZN3gmx30AnalysisDataDisplacementModule4ImplC2Ev(ptr noundef nonnull align 8 dereferenceable(80) %0) unnamed_addr #0 align 2 {
  %2 = alloca ptr, align 8
  store ptr %0, ptr %2, align 8
  %3 = load ptr, ptr %2, align 8
  %4 = getelementptr inbounds %"class.gmx::AnalysisDataDisplacementModule::Impl", ptr %3, i32 0, i32 0
  store i32 0, ptr %4, align 8
  %5 = getelementptr inbounds %"class.gmx::AnalysisDataDisplacementModule::Impl", ptr %3, i32 0, i32 1
  store float 0.000000e+00, ptr %5, align 4
  %6 = getelementptr inbounds %"class.gmx::AnalysisDataDisplacementModule::Impl", ptr %3, i32 0, i32 2
  store i32 3, ptr %6, align 8
  %7 = getelementptr inbounds %"class.gmx::AnalysisDataDisplacementModule::Impl", ptr %3, i32 0, i32 3
  store i8 1, ptr %7, align 4
  %8 = getelementptr inbounds %"class.gmx::AnalysisDataDisplacementModule::Impl", ptr %3, i32 0, i32 4
  store float 0.000000e+00, ptr %8, align 8
  %9 = getelementptr inbounds %"class.gmx::AnalysisDataDisplacementModule::Impl", ptr %3, i32 0, i32 5
  store float 0.000000e+00, ptr %9, align 4
  %10 = getelementptr inbounds %"class.gmx::AnalysisDataDisplacementModule::Impl", ptr %3, i32 0, i32 6
  store float 0.000000e+00, ptr %10, align 8
  %11 = getelementptr inbounds %"class.gmx::AnalysisDataDisplacementModule::Impl", ptr %3, i32 0, i32 7
  store i32 0, ptr %11, align 4
  %12 = getelementptr inbounds %"class.gmx::AnalysisDataDisplacementModule::Impl", ptr %3, i32 0, i32 8
  store i32 -1, ptr %12, align 8
  %13 = getelementptr inbounds %"class.gmx::AnalysisDataDisplacementModule::Impl", ptr %3, i32 0, i32 9
  store i32 0, ptr %13, align 4
  %14 = getelementptr inbounds %"class.gmx::AnalysisDataDisplacementModule::Impl", ptr %3, i32 0, i32 10
  store ptr null, ptr %14, align 8
  %15 = getelementptr inbounds %"class.gmx::AnalysisDataDisplacementModule::Impl", ptr %3, i32 0, i32 11
  call void @_ZNSt6vectorIN3gmx17AnalysisDataValueESaIS1_EEC2Ev(ptr noundef nonnull align 8 dereferenceable(24) %15) #14
  %16 = getelementptr inbounds %"class.gmx::AnalysisDataDisplacementModule::Impl", ptr %3, i32 0, i32 12
  store ptr null, ptr %16, align 8
  ret void
}