; Function Attrs: mustprogress nofree norecurse nosync nounwind willreturn memory(argmem: write) uwtable
define void @_ZN3gmx30AnalysisDataDisplacementModule4ImplC2Ev(ptr nocapture noundef nonnull writeonly align 8 dereferenceable(80) %0) unnamed_addr #8 align 2 {
  store i32 0, ptr %0, align 8
  %2 = getelementptr inbounds i8, ptr %0, i64 4
  store float 0.000000e+00, ptr %2, align 4
  %3 = getelementptr inbounds i8, ptr %0, i64 8
  store i32 3, ptr %3, align 8
  %4 = getelementptr inbounds i8, ptr %0, i64 12
  store i8 1, ptr %4, align 4
  %5 = getelementptr inbounds i8, ptr %0, i64 16
  %6 = getelementptr inbounds i8, ptr %0, i64 32
  tail call void @llvm.memset.p0.i64(ptr noundef nonnull align 8 dereferenceable(16) %5, i8 0, i64 16, i1 false)
  store i32 -1, ptr %6, align 8
  %7 = getelementptr inbounds i8, ptr %0, i64 36
  tail call void @llvm.memset.p0.i64(ptr noundef nonnull align 4 dereferenceable(44) %7, i8 0, i64 44, i1 false)
  ret void
}